; Function Attrs: mustprogress uwtable
define void @_ZN5arrow4util11SkipUTF8BOMEPKhl(ptr dead_on_unwind noalias writable sret(%"class.arrow::Result") align 8 %0, ptr noundef %1, i64 noundef %2) local_unnamed_addr #2 {
  %4 = alloca %"class.arrow::Status", align 8
  br label %5

5:                                                ; preds = %3, %25
  %.016 = phi i64 [ 0, %3 ], [ %27, %25 ]
  %.0815 = phi i64 [ %2, %3 ], [ %26, %25 ]
  %6 = icmp eq i64 %.0815, 0
  br i1 %6, label %7, label %18

7:                                                ; preds = %5
  %8 = icmp eq i64 %2, 0
  br i1 %8, label %9, label %11

9:                                                ; preds = %7
  store ptr null, ptr %0, align 8, !tbaa !14
  %10 = getelementptr inbounds nuw i8, ptr %0, i64 8
  store ptr %1, ptr %10, align 8, !tbaa !17
  br label %31

11:                                               ; preds = %7
  call void @llvm.lifetime.start.p0(i64 8, ptr nonnull %4) #25
  call void @_ZN5arrow6Status8FromArgsIJRA51_KcEEES0_NS_10StatusCodeEDpOT_(ptr dead_on_unwind nonnull writable sret(%"class.arrow::Status") align 8 %4, i8 noundef signext 4, ptr noundef nonnull align 1 dereferenceable(51) @.str.1)
  call void @_ZN5arrow6ResultIPKhEC2ERKNS_6StatusE(ptr noundef nonnull align 8 dereferenceable(16) %0, ptr noundef nonnull align 8 dereferenceable(8) %4) #25
  %12 = load ptr, ptr %4, align 8, !tbaa !14
  %.not.i = icmp eq ptr %12, null
  br i1 %.not.i, label %_ZN5arrow6StatusD2Ev.exit, label %13, !prof !13

13:                                               ; preds = %11
  %14 = getelementptr inbounds nuw i8, ptr %12, i64 1
  %15 = load i8, ptr %14, align 1, !tbaa !19, !range !31, !noundef !32
  %16 = trunc nuw i8 %15 to i1
  br i1 %16, label %_ZN5arrow6StatusD2Ev.exit, label %17

17:                                               ; preds = %13
  call void @_ZN5arrow6Status11DeleteStateEv(ptr noundef nonnull align 8 dereferenceable(8) %4) #25
  br label %_ZN5arrow6StatusD2Ev.exit

_ZN5arrow6StatusD2Ev.exit:                        ; preds = %11, %13, %17
  call void @llvm.lifetime.end.p0(i64 8, ptr nonnull %4) #25
  br label %31

18:                                               ; preds = %5
  %19 = getelementptr inbounds nuw i8, ptr %1, i64 %.016
  %20 = load i8, ptr %19, align 1, !tbaa !9
  %21 = getelementptr inbounds nuw [3 x i8], ptr @_ZN5arrow4utilL4kBOME, i64 0, i64 %.016
  %22 = load i8, ptr %21, align 1, !tbaa !9
  %.not = icmp eq i8 %20, %22
  br i1 %.not, label %25, label %23

23:                                               ; preds = %18
  store ptr null, ptr %0, align 8, !tbaa !14
  %24 = getelementptr inbounds nuw i8, ptr %0, i64 8
  store ptr %1, ptr %24, align 8, !tbaa !17
  br label %31

25:                                               ; preds = %18
  %26 = add nsw i64 %.0815, -1
  %27 = add nuw nsw i64 %.016, 1
  %exitcond.not = icmp eq i64 %27, 3
  br i1 %exitcond.not, label %28, label %5, !llvm.loop !33

28:                                               ; preds = %25
  %29 = getelementptr inbounds nuw i8, ptr %1, i64 3
  store ptr null, ptr %0, align 8, !tbaa !14
  %30 = getelementptr inbounds nuw i8, ptr %0, i64 8
  store ptr %29, ptr %30, align 8, !tbaa !17
  br label %31

31:                                               ; preds = %28, %23, %_ZN5arrow6StatusD2Ev.exit, %9
  ret void
}